; Function Attrs: mustprogress uwtable
define hidden void @_ZN11mpf_manager3setER3mpfRKS0_(ptr nocapture noundef nonnull readonly align 8 dereferenceable(840) %this, ptr noundef nonnull align 8 dereferenceable(32) %o, ptr noundef nonnull align 8 dereferenceable(32) %x) local_unnamed_addr #5 align 2 {
entry:
  %bf.load = load i32, ptr %x, align 8
  %bf.clear = and i32 %bf.load, 32767
  %bf.load2 = load i32, ptr %o, align 8
  %bf.clear3 = and i32 %bf.load2, -32768
  %bf.set = or disjoint i32 %bf.clear3, %bf.clear
  store i32 %bf.set, ptr %o, align 8
  %bf.load4 = load i32, ptr %x, align 8
  %bf.clear5 = and i32 %bf.load4, 2147450880
  %bf.clear8 = and i32 %bf.set, -2147450881
  %bf.set9 = or disjoint i32 %bf.clear8, %bf.clear5
  store i32 %bf.set9, ptr %o, align 8
  %bf.load10 = load i32, ptr %x, align 8
  %bf.lshr11 = and i32 %bf.load10, -2147483648
  %0 = or disjoint i32 %bf.clear, %bf.lshr11
  %bf.set16 = or disjoint i32 %0, %bf.clear5
  store i32 %bf.set16, ptr %o, align 8
  %exponent = getelementptr inbounds i8, ptr %x, i64 24
  %1 = load i64, ptr %exponent, align 8
  %exponent17 = getelementptr inbounds i8, ptr %o, i64 24
  store i64 %1, ptr %exponent17, align 8
  %significand = getelementptr inbounds i8, ptr %o, i64 8
  %significand18 = getelementptr inbounds i8, ptr %x, i64 8
  %m_kind.i.i = getelementptr inbounds i8, ptr %x, i64 12
  %bf.load.i.i = load i8, ptr %m_kind.i.i, align 4
  %bf.clear.i.i = and i8 %bf.load.i.i, 1
  %cmp.i.i = icmp eq i8 %bf.clear.i.i, 0
  br i1 %cmp.i.i, label %if.then.i, label %if.else.i

if.then.i:                                        ; preds = %entry
  %2 = load i32, ptr %significand18, align 8
  store i32 %2, ptr %significand, align 8
  %m_kind.i = getelementptr inbounds i8, ptr %o, i64 12
  %bf.load.i = load i8, ptr %m_kind.i, align 4
  %bf.clear.i = and i8 %bf.load.i, -2
  store i8 %bf.clear.i, ptr %m_kind.i, align 4
  br label %_ZN11mpz_managerILb0EE3setER3mpzRKS1_.exit

if.else.i:                                        ; preds = %entry
  %m_mpz_manager = getelementptr inbounds i8, ptr %this, i64 728
  %3 = load ptr, ptr %m_mpz_manager, align 8
  tail call void @_ZN11mpz_managerILb0EE7big_setER3mpzRKS1_(ptr noundef nonnull align 8 dereferenceable(600) %3, ptr noundef nonnull align 8 dereferenceable(16) %significand, ptr noundef nonnull align 8 dereferenceable(16) %significand18)
  br label %_ZN11mpz_managerILb0EE3setER3mpzRKS1_.exit

_ZN11mpz_managerILb0EE3setER3mpzRKS1_.exit:       ; preds = %if.then.i, %if.else.i
  ret void
}